; Function Attrs: mustprogress nounwind uwtable
define hidden void @_ZN19JfrStringPoolWriterD2Ev(ptr nocapture noundef nonnull align 8 dereferenceable(56) %0) unnamed_addr #0 align 2 {
  %2 = getelementptr inbounds i8, ptr %0, i64 16
  %3 = load ptr, ptr %2, align 8
  %.not = icmp eq ptr %3, null
  br i1 %.not, label %_ZN11StorageHostI7AdapterI18JfrStringPoolFlushE8StackObjE6commitEv.exit, label %4

4:                                                ; preds = %1
  %5 = getelementptr inbounds i8, ptr %0, i64 8
  %6 = load ptr, ptr %5, align 8
  %7 = load ptr, ptr %0, align 8
  %8 = icmp eq ptr %6, %7
  br i1 %8, label %_ZN11StorageHostI7AdapterI18JfrStringPoolFlushE8StackObjE6commitEv.exit, label %9

9:                                                ; preds = %4
  %10 = getelementptr inbounds i8, ptr %0, i64 24
  %11 = load ptr, ptr %10, align 8
  %12 = getelementptr inbounds i8, ptr %0, i64 48
  %13 = load i64, ptr %12, align 8
  tail call void @_ZN19JfrStringPoolBuffer9incrementEm(ptr noundef nonnull align 8 dereferenceable(64) %11, i64 noundef %13) #6
  %14 = load ptr, ptr %2, align 8
  %.not.i = icmp eq ptr %14, null
  br i1 %.not.i, label %_ZN11StorageHostI7AdapterI18JfrStringPoolFlushE8StackObjE6commitEv.exit, label %15

15:                                               ; preds = %9
  %16 = load ptr, ptr %5, align 8
  %17 = load ptr, ptr %10, align 8
  %18 = getelementptr inbounds i8, ptr %17, i64 16
  tail call void asm sideeffect "", "~{memory},~{dirflag},~{fpsr},~{flags}"() #6, !srcloc !6
  store volatile ptr %16, ptr %18, align 8
  store ptr %16, ptr %0, align 8
  br label %_ZN11StorageHostI7AdapterI18JfrStringPoolFlushE8StackObjE6commitEv.exit

_ZN11StorageHostI7AdapterI18JfrStringPoolFlushE8StackObjE6commitEv.exit: ; preds = %15, %9, %1, %4
  %19 = getelementptr inbounds i8, ptr %0, i64 24
  %20 = load ptr, ptr %19, align 8
  %.not.i.i.i.i.i.i = icmp eq ptr %20, null
  br i1 %.not.i.i.i.i.i.i, label %_ZN15EventWriterHostI11EncoderHostI20BigEndianEncoderImplS1_ES0_I20Varint128EncoderImplS1_E30AcquireReleaseMemoryWriterHostI7AdapterI18JfrStringPoolFlushE8StackObjEED2Ev.exit, label %21

21:                                               ; preds = %_ZN11StorageHostI7AdapterI18JfrStringPoolFlushE8StackObjE6commitEv.exit
  %22 = tail call noundef zeroext i1 @_ZNK9JfrBuffer5leaseEv(ptr noundef nonnull align 8 dereferenceable(48) %20) #6
  br i1 %22, label %23, label %_ZN15EventWriterHostI11EncoderHostI20BigEndianEncoderImplS1_ES0_I20Varint128EncoderImplS1_E30AcquireReleaseMemoryWriterHostI7AdapterI18JfrStringPoolFlushE8StackObjEED2Ev.exit

23:                                               ; preds = %21
  %24 = load ptr, ptr %19, align 8
  %25 = getelementptr inbounds i8, ptr %0, i64 32
  %26 = load ptr, ptr %25, align 8
  %27 = tail call noundef ptr @_ZN13JfrStringPool5flushEP19JfrStringPoolBuffermmP6Thread(ptr noundef %24, i64 noundef 0, i64 noundef 0, ptr noundef %26) #6
  store ptr %27, ptr %19, align 8
  br label %_ZN15EventWriterHostI11EncoderHostI20BigEndianEncoderImplS1_ES0_I20Varint128EncoderImplS1_E30AcquireReleaseMemoryWriterHostI7AdapterI18JfrStringPoolFlushE8StackObjEED2Ev.exit

_ZN15EventWriterHostI11EncoderHostI20BigEndianEncoderImplS1_ES0_I20Varint128EncoderImplS1_E30AcquireReleaseMemoryWriterHostI7AdapterI18JfrStringPoolFlushE8StackObjEED2Ev.exit: ; preds = %_ZN11StorageHostI7AdapterI18JfrStringPoolFlushE8StackObjE6commitEv.exit, %21, %23
  ret void
}